; Function Attrs: mustprogress uwtable
define { i64, i32 } @_ZNK2cv10MediaFrame4descEv(ptr noundef nonnull readonly align 8 captures(none) dereferenceable(16) %0) local_unnamed_addr #4 align 2 {
  %2 = load ptr, ptr %0, align 8, !tbaa !8
  %3 = load ptr, ptr %2, align 8, !tbaa !3
  %4 = load ptr, ptr %3, align 8, !tbaa !14
  %5 = getelementptr inbounds nuw i8, ptr %4, i64 16
  %6 = load ptr, ptr %5, align 8
  %7 = tail call { i64, i32 } %6(ptr noundef nonnull align 8 dereferenceable(8) %3)
  ret { i64, i32 } %7
}